target datalayout = "e-m:e-p270:32:32-p271:32:32-p272:64:64-i64:64-i128:128-f80:128-n8:16:32:64-S128"
target triple = "x86_64-pc-linux-gnu"

%struct.lv_color_t = type { i8, i8, i8 }

; Function Attrs: nounwind uwtable
define zeroext i8 @lv_color_luminance(i24 %0) #0 {
  %2 = alloca %struct.lv_color_t, align 1
  store i24 %0, ptr %2, align 1
  %3 = getelementptr inbounds nuw %struct.lv_color_t, ptr %2, i32 0, i32 2
  %4 = load i8, ptr %3, align 1, !tbaa !11
  %5 = zext i8 %4 to i32
  %6 = mul i32 77, %5
  %7 = getelementptr inbounds nuw %struct.lv_color_t, ptr %2, i32 0, i32 1
  %8 = load i8, ptr %7, align 1, !tbaa !15
  %9 = zext i8 %8 to i32
  %10 = mul i32 151, %9
  %11 = add i32 %6, %10
  %12 = getelementptr inbounds nuw %struct.lv_color_t, ptr %2, i32 0, i32 0
  %13 = load i8, ptr %12, align 1, !tbaa !17
  %14 = zext i8 %13 to i32
  %15 = mul i32 28, %14
  %16 = add i32 %11, %15
  %17 = trunc i32 %16 to i16
  %18 = zext i16 %17 to i32
  %19 = ashr i32 %18, 8
  %20 = trunc i32 %19 to i8
  ret i8 %20
}