; Function Attrs: mustprogress nofree norecurse nosync nounwind willreturn memory(none) uwtable
define zeroext i8 @lv_color_luminance(i24 %0) local_unnamed_addr #1 {
  %.sroa.2.0.extract.shift = lshr i24 %0, 8
  %.sroa.3.0.extract.shift = lshr i24 %0, 16
  %narrow = mul nuw nsw i24 %.sroa.3.0.extract.shift, 77
  %2 = and i24 %.sroa.2.0.extract.shift, 255
  %narrow1 = mul nuw nsw i24 %2, 151
  %3 = and i24 %0, 255
  %narrow3 = mul nuw nsw i24 %3, 28
  %narrow2 = add nuw nsw i24 %narrow3, %narrow
  %narrow4 = add nuw nsw i24 %narrow2, %narrow1
  %4 = lshr i24 %narrow4, 8
  %5 = trunc nuw i24 %4 to i8
  ret i8 %5
}